Certificate:
    Data:
        Version: 3 (0x2)
        Serial Number: 1 (0x1)
        Signature Algorithm: sha1WithRSAEncryption
        Issuer: C=UK, ST=LN, L=London, O=CyberWalrus, OU=changeme, CN=hoth/name=hoth/emailAddress=admin@planetcu.be
        Validity
            Not Before: Dec 16 07:49:23 2011 GMT
            Not After : Dec 13 07:49:23 2021 GMT
        Subject: C=UK, ST=LN, L=London, O=CyberWalrus, OU=changeme, CN=hoth/name=changeme/emailAddress=admin@planetcu.be
        Subject Public Key Info:
            Public Key Algorithm: rsaEncryption
                Public-Key: (1024 bit)
                Modulus:
                    00:ad:99:7e:03:2f:b7:5e:63:dd:f4:79:4f:06:dc:
                    da:74:e5:01:46:ea:fe:e3:aa:f8:9f:6c:0e:2f:a4:
                    1a:fd:3d:1b:2f:3b:32:7e:5f:ed:53:fd:0a:d9:00:
                    4f:e2:b4:ae:df:5b:b4:ac:cd:92:9d:09:18:62:e0:
                    7e:f4:41:d8:37:68:86:48:48:e8:0b:ea:a1:83:18:
                    93:aa:2e:f6:05:17:aa:eb:3d:51:9c:ea:06:1d:2d:
                    0b:44:fd:3c:22:11:7c:e2:69:ea:6d:0f:a8:22:4b:
                    e3:99:39:ee:00:dc:9a:a6:ae:c2:76:32:21:db:26:
                    3c:48:68:68:51:66:4d:ae:a5
                Exponent: 65537 (0x10001)
        X509v3 extensions:
            X509v3 Basic Constraints: 
                CA:FALSE
            Netscape Cert Type: 
                SSL Server
            Netscape Comment: 
                Easy-RSA Generated Server Certificate
            X509v3 Subject Key Identifier: 
                53:8C:03:A9:A6:AB:95:FF:71:1D:21:01:4A:D4:FC:8E:90:0D:7C:D8
            X509v3 Authority Key Identifier: 
                keyid:E8:65:3A:B7:DE:D7:6F:9C:99:EB:53:4C:86:11:ED:CD:8E:64:A6:8C
                DirName:/C=UK/ST=LN/L=London/O=CyberWalrus/OU=changeme/CN=hoth/name=hoth/emailAddress=admin@planetcu.be
                serial:E1:BC:8B:48:42:3B:08:04

            X509v3 Extended Key Usage: 
                TLS Web Server Authentication
            X509v3 Key Usage: 
                Digital Signature, Key Encipherment
    Signature Algorithm: sha1WithRSAEncryption
        71:4e:63:c0:de:8a:5f:52:27:73:88:4e:5b:3a:42:bf:79:f7:
        f8:e9:17:fb:90:da:a5:5d:f0:cb:07:ed:20:ae:bf:a7:31:ef:
        69:3e:b0:93:c7:f3:6b:b4:59:29:57:d2:1d:28:3e:f5:84:43:
        80:f7:bb:cf:7e:c4:be:13:76:b4:35:d0:3a:44:b3:8a:da:d0:
        51:48:06:1e:40:cf:f4:72:73:bb:5d:22:3b:e5:3f:71:66:5f:
        86:d3:84:50:f9:75:9a:55:80:b6:28:90:5c:0f:5c:0a:6d:eb:
        a4:e1:03:0b:e7:84:a7:d3:54:47:3a:8a:df:ce:f2:4d:a3:9b:
        28:45
-----BEGIN CERTIFICATE-----
MIIECzCCA3SgAwIBAgIBATANBgkqhkiG9w0BAQUFADCBlDELMAkGA1UEBhMCVUsx
CzAJBgNVBAgTAkxOMQ8wDQYDVQQHEwZMb25kb24xFDASBgNVBAoTC0N5YmVyV2Fs
cnVzMREwDwYDVQQLEwhjaGFuZ2VtZTENMAsGA1UEAxMEaG90aDENMAsGA1UEKRME
aG90aDEgMB4GCSqGSIb3DQEJARYRYWRtaW5AcGxhbmV0Y3UuYmUwHhcNMTExMjE2
MDc0OTIzWhcNMjExMjEzMDc0OTIzWjCBmDELMAkGA1UEBhMCVUsxCzAJBgNVBAgT
AkxOMQ8wDQYDVQQHEwZMb25kb24xFDASBgNVBAoTC0N5YmVyV2FscnVzMREwDwYD
VQQLEwhjaGFuZ2VtZTENMAsGA1UEAxMEaG90aDERMA8GA1UEKRMIY2hhbmdlbWUx
IDAeBgkqhkiG9w0BCQEWEWFkbWluQHBsYW5ldGN1LmJlMIGfMA0GCSqGSIb3DQEB
AQUAA4GNADCBiQKBgQCtmX4DL7deY930eU8G3Np05QFG6v7jqvifbA4vpBr9PRsv
OzJ+X+1T/QrZAE/itK7fW7SszZKdCRhi4H70Qdg3aIZISOgL6qGDGJOqLvYFF6rr
PVGc6gYdLQtE/TwiEXziaeptD6giS+OZOe4A3JqmrsJ2MiHbJjxIaGhRZk2upQID
AQABo4IBZTCCAWEwCQYDVR0TBAIwADARBglghkgBhvhCAQEEBAMCBkAwNAYJYIZI
AYb4QgENBCcWJUVhc3ktUlNBIEdlbmVyYXRlZCBTZXJ2ZXIgQ2VydGlmaWNhdGUw
HQYDVR0OBBYEFFOMA6mmq5X/cR0hAUrU/I6QDXzYMIHJBgNVHSMEgcEwgb6AFOhl
Orfe12+cmetTTIYR7c2OZKaMoYGapIGXMIGUMQswCQYDVQQGEwJVSzELMAkGA1UE
CBMCTE4xDzANBgNVBAcTBkxvbmRvbjEUMBIGA1UEChMLQ3liZXJXYWxydXMxETAP
BgNVBAsTCGNoYW5nZW1lMQ0wCwYDVQQDEwRob3RoMQ0wCwYDVQQpEwRob3RoMSAw
HgYJKoZIhvcNAQkBFhFhZG1pbkBwbGFuZXRjdS5iZYIJAOG8i0hCOwgEMBMGA1Ud
JQQMMAoGCCsGAQUFBwMBMAsGA1UdDwQEAwIFoDANBgkqhkiG9w0BAQUFAAOBgQBx
TmPA3opfUidziE5bOkK/eff46Rf7kNqlXfDLB+0grr+nMe9pPrCTx/NrtFkpV9Id
KD71hEOA97vPfsS+E3a0NdA6RLOK2tBRSAYeQM/0cnO7XSI75T9xZl+G04RQ+XWa
VYC2KJBcD1wKbeuk4QML54Sn01RHOorfzvJNo5soRQ==
-----END CERTIFICATE-----
